; ModuleID = '29/1835.c'
source_filename = "29/1835.c"
target datalayout = "e-m:e-p270:32:32-p271:32:32-p272:64:64-i64:64-f80:128-n8:16:32:64-S128"
target triple = "x86_64-pc-linux-gnu"

@.str = private unnamed_addr constant [3 x i8] c"%d\00", align 1
@.str.1 = private unnamed_addr constant [6 x i8] c"%.3f\0A\00", align 1

; Function Attrs: noinline nounwind uwtable
define dso_local void @main() #0 {
  %1 = alloca i32, align 4
  %2 = alloca i32, align 4
  %3 = alloca i32, align 4
  %4 = alloca [1000 x i32], align 16
  %5 = alloca float, align 4
  store i32 0, i32* %2, align 4
  store i32 1, i32* %3, align 4
  store float 0.000000e+00, float* %5, align 4
  %6 = call i32 (i8*, ...) @__isoc99_scanf(i8* getelementptr inbounds ([3 x i8], [3 x i8]* @.str, i64 0, i64 0), i32* %1)
  br label %7

7:                                                ; preds = %11, %0
  %8 = load i32, i32* %2, align 4
  %9 = load i32, i32* %1, align 4
  %10 = icmp slt i32 %8, %9
  br i1 %10, label %11, label %18

11:                                               ; preds = %7
  %12 = load i32, i32* %2, align 4
  %13 = sext i32 %12 to i64
  %14 = getelementptr inbounds [1000 x i32], [1000 x i32]* %4, i64 0, i64 %13
  %15 = call i32 (i8*, ...) @__isoc99_scanf(i8* getelementptr inbounds ([3 x i8], [3 x i8]* @.str, i64 0, i64 0), i32* %14)
  %16 = load i32, i32* %2, align 4
  %17 = add nsw i32 %16, 1
  store i32 %17, i32* %2, align 4
  br label %7

18:                                               ; preds = %7
  store i32 0, i32* %2, align 4
  br label %19

19:                                               ; preds = %43, %18
  %20 = load i32, i32* %2, align 4
  %21 = load i32, i32* %1, align 4
  %22 = icmp slt i32 %20, %21
  br i1 %22, label %23, label %49

23:                                               ; preds = %19
  br label %24

24:                                               ; preds = %32, %23
  %25 = load i32, i32* %3, align 4
  %26 = load i32, i32* %2, align 4
  %27 = sext i32 %26 to i64
  %28 = getelementptr inbounds [1000 x i32], [1000 x i32]* %4, i64 0, i64 %27
  %29 = load i32, i32* %28, align 4
  %30 = add nsw i32 %29, 1
  %31 = icmp slt i32 %25, %30
  br i1 %31, label %32, label %43

32:                                               ; preds = %24
  %33 = load i32, i32* %3, align 4
  %34 = add nsw i32 %33, 1
  %35 = call float @F_num(i32 %34)
  %36 = load i32, i32* %3, align 4
  %37 = call float @F_num(i32 %36)
  %38 = fdiv float %35, %37
  %39 = load float, float* %5, align 4
  %40 = fadd float %39, %38
  store float %40, float* %5, align 4
  %41 = load i32, i32* %3, align 4
  %42 = add nsw i32 %41, 1
  store i32 %42, i32* %3, align 4
  br label %24

43:                                               ; preds = %24
  %44 = load float, float* %5, align 4
  %45 = fpext float %44 to double
  %46 = call i32 (i8*, ...) @printf(i8* getelementptr inbounds ([6 x i8], [6 x i8]* @.str.1, i64 0, i64 0), double %45)
  store float 0.000000e+00, float* %5, align 4
  store i32 1, i32* %3, align 4
  %47 = load i32, i32* %2, align 4
  %48 = add nsw i32 %47, 1
  store i32 %48, i32* %2, align 4
  br label %19

49:                                               ; preds = %19
  ret void
}

declare dso_local i32 @__isoc99_scanf(i8*, ...) #1

; Function Attrs: noinline nounwind uwtable
define dso_local float @F_num(i32 %0) #0 {
  %2 = alloca i32, align 4
  %3 = alloca i32, align 4
  %4 = alloca i32, align 4
  %5 = alloca i32, align 4
  %6 = alloca i32, align 4
  store i32 %0, i32* %2, align 4
  store i32 1, i32* %3, align 4
  store i32 0, i32* %4, align 4
  store i32 0, i32* %6, align 4
  br label %7

7:                                                ; preds = %12, %1
  %8 = load i32, i32* %6, align 4
  %9 = load i32, i32* %2, align 4
  %10 = add nsw i32 %9, 1
  %11 = icmp slt i32 %8, %10
  br i1 %11, label %12, label %20

12:                                               ; preds = %7
  %13 = load i32, i32* %3, align 4
  %14 = load i32, i32* %4, align 4
  %15 = add nsw i32 %13, %14
  store i32 %15, i32* %5, align 4
  %16 = load i32, i32* %4, align 4
  store i32 %16, i32* %3, align 4
  %17 = load i32, i32* %5, align 4
  store i32 %17, i32* %4, align 4
  %18 = load i32, i32* %6, align 4
  %19 = add nsw i32 %18, 1
  store i32 %19, i32* %6, align 4
  br label %7

20:                                               ; preds = %7
  %21 = load i32, i32* %5, align 4
  %22 = sitofp i32 %21 to double
  %23 = fmul double %22, 1.000000e+00
  %24 = fptrunc double %23 to float
  ret float %24
}

declare dso_local i32 @printf(i8*, ...) #1


!llvm.module.flags = !{!0}
!llvm.ident = !{!1}

!0 = !{i32 1, !"wchar_size", i32 4}
!1 = !{!"clang version 10.0.0-4ubuntu1 "}
